; Function Attrs: mustprogress nounwind uwtable
define hidden void @_ZN12LinkResolver20resolve_dynamic_callER8CallInfoR13BootstrapInfoP10JavaThread(ptr noundef nonnull align 8 dereferenceable(64) %0, ptr noundef nonnull align 8 dereferenceable(128) %1, ptr noundef %2) local_unnamed_addr #0 align 2 {
  tail call void @_ZN16SystemDictionary23invoke_bootstrap_methodER13BootstrapInfoP10JavaThread(ptr noundef nonnull align 8 dereferenceable(128) %1, ptr noundef %2) #10
  tail call void @_ZN10Exceptions22wrap_dynamic_exceptionEbP10JavaThread(i1 noundef zeroext true, ptr noundef %2) #10
  %4 = getelementptr inbounds i8, ptr %2, i64 8
  %5 = load ptr, ptr %4, align 8
  %.not = icmp eq ptr %5, null
  br i1 %.not, label %38, label %6

6:                                                ; preds = %3
  %7 = load ptr, ptr getelementptr inbounds (i8, ptr @_ZN9vmClasses8_klassesE, i64 152), align 8
  %8 = load i8, ptr @UseCompressedClassPointers, align 1
  %9 = trunc i8 %8 to i1
  %10 = getelementptr inbounds i8, ptr %5, i64 8
  br i1 %9, label %11, label %21

11:                                               ; preds = %6
  %12 = load i32, ptr %10, align 8
  %13 = load ptr, ptr @_ZN23CompressedKlassPointers5_baseE, align 8
  %14 = load i32, ptr @_ZN23CompressedKlassPointers6_shiftE, align 4
  %15 = ptrtoint ptr %13 to i64
  %16 = zext i32 %12 to i64
  %17 = zext nneg i32 %14 to i64
  %18 = shl i64 %16, %17
  %19 = add i64 %18, %15
  %20 = inttoptr i64 %19 to ptr
  br label %_ZNK7oopDesc5klassEv.exit.i

21:                                               ; preds = %6
  %22 = load ptr, ptr %10, align 8
  br label %_ZNK7oopDesc5klassEv.exit.i

_ZNK7oopDesc5klassEv.exit.i:                      ; preds = %21, %11
  %.0.i.i = phi ptr [ %20, %11 ], [ %22, %21 ]
  %23 = getelementptr inbounds i8, ptr %7, i64 20
  %24 = load i32, ptr %23, align 4
  %25 = zext i32 %24 to i64
  %26 = getelementptr inbounds i8, ptr %.0.i.i, i64 %25
  %27 = load ptr, ptr %26, align 8
  %28 = icmp eq ptr %27, %7
  br i1 %28, label %_ZNK7oopDesc4is_aEP5Klass.exit.thread, label %29

29:                                               ; preds = %_ZNK7oopDesc5klassEv.exit.i
  %.not.i.i = icmp eq i32 %24, 32
  br i1 %.not.i.i, label %_ZNK7oopDesc4is_aEP5Klass.exit, label %_ZNK7oopDesc4is_aEP5Klass.exit.thread21

_ZNK7oopDesc4is_aEP5Klass.exit:                   ; preds = %29
  %30 = tail call noundef zeroext i1 @_ZNK5Klass23search_secondary_supersEPS_(ptr noundef nonnull align 8 dereferenceable(196) %.0.i.i, ptr noundef nonnull %7) #10
  br i1 %30, label %_ZNK7oopDesc4is_aEP5Klass.exit.thread, label %_ZNK7oopDesc4is_aEP5Klass.exit.thread21

_ZNK7oopDesc4is_aEP5Klass.exit.thread:            ; preds = %_ZNK7oopDesc5klassEv.exit.i, %_ZNK7oopDesc4is_aEP5Klass.exit
  %31 = tail call noundef zeroext i1 @_ZN13BootstrapInfo23save_and_throw_indy_excEP10JavaThread(ptr noundef nonnull align 8 dereferenceable(128) %1, ptr noundef nonnull %2) #10
  %32 = load ptr, ptr %4, align 8
  %.not23 = icmp eq ptr %32, null
  br i1 %.not23, label %33, label %_ZNK7oopDesc4is_aEP5Klass.exit.thread21

33:                                               ; preds = %_ZNK7oopDesc4is_aEP5Klass.exit.thread
  br i1 %31, label %38, label %34

34:                                               ; preds = %33
  %35 = tail call noundef zeroext i1 @_ZN13BootstrapInfo39resolve_previously_linked_invokedynamicER8CallInfoP10JavaThread(ptr noundef nonnull align 8 dereferenceable(128) %1, ptr noundef nonnull align 8 dereferenceable(64) %0, ptr noundef nonnull %2) #10
  %36 = load ptr, ptr %4, align 8
  %37 = icmp ne ptr %36, null
  %brmerge = or i1 %35, %37
  br i1 %brmerge, label %_ZNK7oopDesc4is_aEP5Klass.exit.thread21, label %38

38:                                               ; preds = %34, %33, %3
  tail call void @_ZN13BootstrapInfo34resolve_newly_linked_invokedynamicER8CallInfoP10JavaThread(ptr noundef nonnull align 8 dereferenceable(128) %1, ptr noundef nonnull align 8 dereferenceable(64) %0, ptr noundef nonnull %2) #10
  %39 = load ptr, ptr %4, align 8
  %.not24 = icmp eq ptr %39, null
  br i1 %.not24, label %40, label %_ZNK7oopDesc4is_aEP5Klass.exit.thread21

40:                                               ; preds = %38
  tail call void @_ZN3Jfr13on_resolutionERK8CallInfoP10JavaThread(ptr noundef nonnull align 8 dereferenceable(64) %0, ptr noundef nonnull %2) #10
  br label %_ZNK7oopDesc4is_aEP5Klass.exit.thread21

_ZNK7oopDesc4is_aEP5Klass.exit.thread21:          ; preds = %29, %34, %40, %38, %_ZNK7oopDesc4is_aEP5Klass.exit.thread, %_ZNK7oopDesc4is_aEP5Klass.exit
  ret void
}